target datalayout = "e-m:e-p270:32:32-p271:32:32-p272:64:64-i64:64-i128:128-f80:128-n8:16:32:64-S128"
target triple = "x86_64-pc-linux-gnu"

; Function Attrs: nounwind sspstrong uwtable
define internal void @minify_string(ptr noundef %0, ptr noundef %1) #0 {
  %3 = alloca ptr, align 8
  %4 = alloca ptr, align 8
  store ptr %0, ptr %3, align 8, !tbaa !38
  store ptr %1, ptr %4, align 8, !tbaa !38
  %5 = load ptr, ptr %3, align 8, !tbaa !38
  %6 = load ptr, ptr %5, align 8, !tbaa !33
  %7 = getelementptr inbounds i8, ptr %6, i64 0
  %8 = load i8, ptr %7, align 1, !tbaa !46
  %9 = load ptr, ptr %4, align 8, !tbaa !38
  %10 = load ptr, ptr %9, align 8, !tbaa !33
  %11 = getelementptr inbounds i8, ptr %10, i64 0
  store i8 %8, ptr %11, align 1, !tbaa !46
  %12 = load ptr, ptr %3, align 8, !tbaa !38
  %13 = load ptr, ptr %12, align 8, !tbaa !33
  %14 = getelementptr inbounds nuw i8, ptr %13, i64 1
  store ptr %14, ptr %12, align 8, !tbaa !33
  %15 = load ptr, ptr %4, align 8, !tbaa !38
  %16 = load ptr, ptr %15, align 8, !tbaa !33
  %17 = getelementptr inbounds nuw i8, ptr %16, i64 1
  store ptr %17, ptr %15, align 8, !tbaa !33
  br label %18

18:                                               ; preds = %79, %2
  %19 = load ptr, ptr %3, align 8, !tbaa !38
  %20 = load ptr, ptr %19, align 8, !tbaa !33
  %21 = getelementptr inbounds i8, ptr %20, i64 0
  %22 = load i8, ptr %21, align 1, !tbaa !46
  %23 = sext i8 %22 to i32
  %24 = icmp ne i32 %23, 0
  br i1 %24, label %25, label %86

25:                                               ; preds = %18
  %26 = load ptr, ptr %3, align 8, !tbaa !38
  %27 = load ptr, ptr %26, align 8, !tbaa !33
  %28 = getelementptr inbounds i8, ptr %27, i64 0
  %29 = load i8, ptr %28, align 1, !tbaa !46
  %30 = load ptr, ptr %4, align 8, !tbaa !38
  %31 = load ptr, ptr %30, align 8, !tbaa !33
  %32 = getelementptr inbounds i8, ptr %31, i64 0
  store i8 %29, ptr %32, align 1, !tbaa !46
  %33 = load ptr, ptr %3, align 8, !tbaa !38
  %34 = load ptr, ptr %33, align 8, !tbaa !33
  %35 = getelementptr inbounds i8, ptr %34, i64 0
  %36 = load i8, ptr %35, align 1, !tbaa !46
  %37 = sext i8 %36 to i32
  %38 = icmp eq i32 %37, 34
  br i1 %38, label %39, label %49

39:                                               ; preds = %25
  %40 = load ptr, ptr %4, align 8, !tbaa !38
  %41 = load ptr, ptr %40, align 8, !tbaa !33
  %42 = getelementptr inbounds i8, ptr %41, i64 0
  store i8 34, ptr %42, align 1, !tbaa !46
  %43 = load ptr, ptr %3, align 8, !tbaa !38
  %44 = load ptr, ptr %43, align 8, !tbaa !33
  %45 = getelementptr inbounds nuw i8, ptr %44, i64 1
  store ptr %45, ptr %43, align 8, !tbaa !33
  %46 = load ptr, ptr %4, align 8, !tbaa !38
  %47 = load ptr, ptr %46, align 8, !tbaa !33
  %48 = getelementptr inbounds nuw i8, ptr %47, i64 1
  store ptr %48, ptr %46, align 8, !tbaa !33
  br label %86

49:                                               ; preds = %25
  %50 = load ptr, ptr %3, align 8, !tbaa !38
  %51 = load ptr, ptr %50, align 8, !tbaa !33
  %52 = getelementptr inbounds i8, ptr %51, i64 0
  %53 = load i8, ptr %52, align 1, !tbaa !46
  %54 = sext i8 %53 to i32
  %55 = icmp eq i32 %54, 92
  br i1 %55, label %56, label %77

56:                                               ; preds = %49
  %57 = load ptr, ptr %3, align 8, !tbaa !38
  %58 = load ptr, ptr %57, align 8, !tbaa !33
  %59 = getelementptr inbounds i8, ptr %58, i64 1
  %60 = load i8, ptr %59, align 1, !tbaa !46
  %61 = sext i8 %60 to i32
  %62 = icmp eq i32 %61, 34
  br i1 %62, label %63, label %77

63:                                               ; preds = %56
  %64 = load ptr, ptr %3, align 8, !tbaa !38
  %65 = load ptr, ptr %64, align 8, !tbaa !33
  %66 = getelementptr inbounds i8, ptr %65, i64 1
  %67 = load i8, ptr %66, align 1, !tbaa !46
  %68 = load ptr, ptr %4, align 8, !tbaa !38
  %69 = load ptr, ptr %68, align 8, !tbaa !33
  %70 = getelementptr inbounds i8, ptr %69, i64 1
  store i8 %67, ptr %70, align 1, !tbaa !46
  %71 = load ptr, ptr %3, align 8, !tbaa !38
  %72 = load ptr, ptr %71, align 8, !tbaa !33
  %73 = getelementptr inbounds nuw i8, ptr %72, i64 1
  store ptr %73, ptr %71, align 8, !tbaa !33
  %74 = load ptr, ptr %4, align 8, !tbaa !38
  %75 = load ptr, ptr %74, align 8, !tbaa !33
  %76 = getelementptr inbounds nuw i8, ptr %75, i64 1
  store ptr %76, ptr %74, align 8, !tbaa !33
  br label %77

77:                                               ; preds = %63, %56, %49
  br label %78

78:                                               ; preds = %77
  br label %79

79:                                               ; preds = %78
  %80 = load ptr, ptr %3, align 8, !tbaa !38
  %81 = load ptr, ptr %80, align 8, !tbaa !33
  %82 = getelementptr inbounds nuw i8, ptr %81, i32 1
  store ptr %82, ptr %80, align 8, !tbaa !33
  %83 = load ptr, ptr %4, align 8, !tbaa !38
  %84 = load ptr, ptr %83, align 8, !tbaa !33
  %85 = getelementptr inbounds nuw i8, ptr %84, i32 1
  store ptr %85, ptr %83, align 8, !tbaa !33
  br label %18

86:                                               ; preds = %39, %18
  ret void
}

; Function Attrs: nounwind sspstrong uwtable
define internal void @skip_multiline_comment(ptr noundef %0) #0 {
  %2 = alloca ptr, align 8
  store ptr %0, ptr %2, align 8, !tbaa !38
  %3 = load ptr, ptr %2, align 8, !tbaa !38
  %4 = load ptr, ptr %3, align 8, !tbaa !33
  %5 = getelementptr inbounds nuw i8, ptr %4, i64 2
  store ptr %5, ptr %3, align 8, !tbaa !33
  br label %6

6:                                                ; preds = %32, %1
  %7 = load ptr, ptr %2, align 8, !tbaa !38
  %8 = load ptr, ptr %7, align 8, !tbaa !33
  %9 = getelementptr inbounds i8, ptr %8, i64 0
  %10 = load i8, ptr %9, align 1, !tbaa !46
  %11 = sext i8 %10 to i32
  %12 = icmp ne i32 %11, 0
  br i1 %12, label %13, label %36

13:                                               ; preds = %6
  %14 = load ptr, ptr %2, align 8, !tbaa !38
  %15 = load ptr, ptr %14, align 8, !tbaa !33
  %16 = getelementptr inbounds i8, ptr %15, i64 0
  %17 = load i8, ptr %16, align 1, !tbaa !46
  %18 = sext i8 %17 to i32
  %19 = icmp eq i32 %18, 42
  br i1 %19, label %20, label %31

20:                                               ; preds = %13
  %21 = load ptr, ptr %2, align 8, !tbaa !38
  %22 = load ptr, ptr %21, align 8, !tbaa !33
  %23 = getelementptr inbounds i8, ptr %22, i64 1
  %24 = load i8, ptr %23, align 1, !tbaa !46
  %25 = sext i8 %24 to i32
  %26 = icmp eq i32 %25, 47
  br i1 %26, label %27, label %31

27:                                               ; preds = %20
  %28 = load ptr, ptr %2, align 8, !tbaa !38
  %29 = load ptr, ptr %28, align 8, !tbaa !33
  %30 = getelementptr inbounds nuw i8, ptr %29, i64 2
  store ptr %30, ptr %28, align 8, !tbaa !33
  br label %36

31:                                               ; preds = %20, %13
  br label %32

32:                                               ; preds = %31
  %33 = load ptr, ptr %2, align 8, !tbaa !38
  %34 = load ptr, ptr %33, align 8, !tbaa !33
  %35 = getelementptr inbounds nuw i8, ptr %34, i32 1
  store ptr %35, ptr %33, align 8, !tbaa !33
  br label %6

36:                                               ; preds = %27, %6
  ret void
}

; Function Attrs: nounwind sspstrong uwtable
define internal void @skip_oneline_comment(ptr noundef %0) #0 {
  %2 = alloca ptr, align 8
  store ptr %0, ptr %2, align 8, !tbaa !38
  %3 = load ptr, ptr %2, align 8, !tbaa !38
  %4 = load ptr, ptr %3, align 8, !tbaa !33
  %5 = getelementptr inbounds nuw i8, ptr %4, i64 2
  store ptr %5, ptr %3, align 8, !tbaa !33
  br label %6

6:                                                ; preds = %25, %1
  %7 = load ptr, ptr %2, align 8, !tbaa !38
  %8 = load ptr, ptr %7, align 8, !tbaa !33
  %9 = getelementptr inbounds i8, ptr %8, i64 0
  %10 = load i8, ptr %9, align 1, !tbaa !46
  %11 = sext i8 %10 to i32
  %12 = icmp ne i32 %11, 0
  br i1 %12, label %13, label %29

13:                                               ; preds = %6
  %14 = load ptr, ptr %2, align 8, !tbaa !38
  %15 = load ptr, ptr %14, align 8, !tbaa !33
  %16 = getelementptr inbounds i8, ptr %15, i64 0
  %17 = load i8, ptr %16, align 1, !tbaa !46
  %18 = sext i8 %17 to i32
  %19 = icmp eq i32 %18, 10
  br i1 %19, label %20, label %24

20:                                               ; preds = %13
  %21 = load ptr, ptr %2, align 8, !tbaa !38
  %22 = load ptr, ptr %21, align 8, !tbaa !33
  %23 = getelementptr inbounds nuw i8, ptr %22, i64 1
  store ptr %23, ptr %21, align 8, !tbaa !33
  br label %29

24:                                               ; preds = %13
  br label %25

25:                                               ; preds = %24
  %26 = load ptr, ptr %2, align 8, !tbaa !38
  %27 = load ptr, ptr %26, align 8, !tbaa !33
  %28 = getelementptr inbounds nuw i8, ptr %27, i32 1
  store ptr %28, ptr %26, align 8, !tbaa !33
  br label %6

29:                                               ; preds = %20, %6
  ret void
}

; Function Attrs: nounwind sspstrong uwtable
define void @cJSON_Minify(ptr noundef %0) #0 {
  %2 = alloca ptr, align 8
  %3 = alloca ptr, align 8
  %4 = alloca i32, align 4
  store ptr %0, ptr %2, align 8, !tbaa !33
  call void @llvm.lifetime.start.p0(i64 8, ptr %3) #10
  %5 = load ptr, ptr %2, align 8, !tbaa !33
  store ptr %5, ptr %3, align 8, !tbaa !33
  %6 = load ptr, ptr %2, align 8, !tbaa !33
  %7 = icmp eq ptr %6, null
  br i1 %7, label %8, label %9

8:                                                ; preds = %1
  store i32 1, ptr %4, align 4
  br label %57

9:                                                ; preds = %1
  br label %10

10:                                               ; preds = %54, %9
  %11 = load ptr, ptr %2, align 8, !tbaa !33
  %12 = getelementptr inbounds i8, ptr %11, i64 0
  %13 = load i8, ptr %12, align 1, !tbaa !46
  %14 = sext i8 %13 to i32
  %15 = icmp ne i32 %14, 0
  br i1 %15, label %16, label %55

16:                                               ; preds = %10
  %17 = load ptr, ptr %2, align 8, !tbaa !33
  %18 = getelementptr inbounds i8, ptr %17, i64 0
  %19 = load i8, ptr %18, align 1, !tbaa !46
  %20 = sext i8 %19 to i32
  switch i32 %20, label %44 [
    i32 32, label %21
    i32 9, label %21
    i32 13, label %21
    i32 10, label %21
    i32 47, label %24
    i32 34, label %43
  ]

21:                                               ; preds = %16, %16, %16, %16
  %22 = load ptr, ptr %2, align 8, !tbaa !33
  %23 = getelementptr inbounds nuw i8, ptr %22, i32 1
  store ptr %23, ptr %2, align 8, !tbaa !33
  br label %54

24:                                               ; preds = %16
  %25 = load ptr, ptr %2, align 8, !tbaa !33
  %26 = getelementptr inbounds i8, ptr %25, i64 1
  %27 = load i8, ptr %26, align 1, !tbaa !46
  %28 = sext i8 %27 to i32
  %29 = icmp eq i32 %28, 47
  br i1 %29, label %30, label %31

30:                                               ; preds = %24
  call void @skip_oneline_comment(ptr noundef %2)
  br label %42

31:                                               ; preds = %24
  %32 = load ptr, ptr %2, align 8, !tbaa !33
  %33 = getelementptr inbounds i8, ptr %32, i64 1
  %34 = load i8, ptr %33, align 1, !tbaa !46
  %35 = sext i8 %34 to i32
  %36 = icmp eq i32 %35, 42
  br i1 %36, label %37, label %38

37:                                               ; preds = %31
  call void @skip_multiline_comment(ptr noundef %2)
  br label %41

38:                                               ; preds = %31
  %39 = load ptr, ptr %2, align 8, !tbaa !33
  %40 = getelementptr inbounds nuw i8, ptr %39, i32 1
  store ptr %40, ptr %2, align 8, !tbaa !33
  br label %41

41:                                               ; preds = %38, %37
  br label %42

42:                                               ; preds = %41, %30
  br label %54

43:                                               ; preds = %16
  call void @minify_string(ptr noundef %2, ptr noundef %3)
  br label %54

44:                                               ; preds = %16
  %45 = load ptr, ptr %2, align 8, !tbaa !33
  %46 = getelementptr inbounds i8, ptr %45, i64 0
  %47 = load i8, ptr %46, align 1, !tbaa !46
  %48 = load ptr, ptr %3, align 8, !tbaa !33
  %49 = getelementptr inbounds i8, ptr %48, i64 0
  store i8 %47, ptr %49, align 1, !tbaa !46
  %50 = load ptr, ptr %2, align 8, !tbaa !33
  %51 = getelementptr inbounds nuw i8, ptr %50, i32 1
  store ptr %51, ptr %2, align 8, !tbaa !33
  %52 = load ptr, ptr %3, align 8, !tbaa !33
  %53 = getelementptr inbounds nuw i8, ptr %52, i32 1
  store ptr %53, ptr %3, align 8, !tbaa !33
  br label %54

54:                                               ; preds = %44, %43, %42, %21
  br label %10

55:                                               ; preds = %10
  %56 = load ptr, ptr %3, align 8, !tbaa !33
  store i8 0, ptr %56, align 1, !tbaa !46
  store i32 0, ptr %4, align 4
  br label %57

57:                                               ; preds = %55, %8
  call void @llvm.lifetime.end.p0(i64 8, ptr %3) #10
  %58 = load i32, ptr %4, align 4
  switch i32 %58, label %60 [
    i32 0, label %59
    i32 1, label %59
  ]

59:                                               ; preds = %57, %57
  ret void

60:                                               ; preds = %57
  unreachable
}