; Function Attrs: nofree norecurse nosync nounwind sspstrong memory(argmem: readwrite) uwtable
define void @cJSON_Minify(ptr noundef %0) local_unnamed_addr #24 {
  %2 = icmp eq ptr %0, null
  br i1 %2, label %48, label %.preheader

.preheader:                                       ; preds = %1, %.preheader.backedge
  %.022 = phi ptr [ %.022.be, %.preheader.backedge ], [ %0, %1 ]
  %.0 = phi ptr [ %.0.be, %.preheader.backedge ], [ %0, %1 ]
  %3 = load i8, ptr %.022, align 1, !tbaa !34
  switch i8 %3, label %44 [
    i8 0, label %47
    i8 32, label %4
    i8 9, label %4
    i8 13, label %4
    i8 10, label %4
    i8 47, label %6
    i8 34, label %29
  ]

4:                                                ; preds = %.preheader, %.preheader, %.preheader, %.preheader
  %5 = getelementptr inbounds nuw i8, ptr %.022, i64 1
  br label %.preheader.backedge

6:                                                ; preds = %.preheader
  %7 = getelementptr inbounds nuw i8, ptr %.022, i64 1
  %8 = load i8, ptr %7, align 1, !tbaa !34
  switch i8 %8, label %.preheader.backedge [
    i8 47, label %9
    i8 42, label %17
  ]

9:                                                ; preds = %6
  %10 = getelementptr inbounds nuw i8, ptr %.022, i64 2
  br label %11

11:                                               ; preds = %15, %9
  %storemerge.i = phi ptr [ %10, %9 ], [ %16, %15 ]
  %12 = load i8, ptr %storemerge.i, align 1, !tbaa !34
  switch i8 %12, label %15 [
    i8 0, label %.preheader.backedge
    i8 10, label %13
  ]

13:                                               ; preds = %11
  %14 = getelementptr inbounds nuw i8, ptr %storemerge.i, i64 1
  br label %.preheader.backedge

15:                                               ; preds = %11
  %16 = getelementptr inbounds nuw i8, ptr %storemerge.i, i64 1
  br label %11

17:                                               ; preds = %6
  %18 = getelementptr inbounds nuw i8, ptr %.022, i64 2
  br label %19

19:                                               ; preds = %27, %17
  %storemerge.i2 = phi ptr [ %18, %17 ], [ %28, %27 ]
  %20 = load i8, ptr %storemerge.i2, align 1, !tbaa !34
  switch i8 %20, label %27 [
    i8 0, label %.preheader.backedge
    i8 42, label %21
  ]

21:                                               ; preds = %19
  %22 = getelementptr inbounds nuw i8, ptr %storemerge.i2, i64 1
  %23 = load i8, ptr %22, align 1, !tbaa !34
  %24 = icmp eq i8 %23, 47
  br i1 %24, label %25, label %27

25:                                               ; preds = %21
  %26 = getelementptr inbounds nuw i8, ptr %storemerge.i2, i64 2
  br label %.preheader.backedge

27:                                               ; preds = %21, %19
  %28 = getelementptr inbounds nuw i8, ptr %storemerge.i2, i64 1
  br label %19

29:                                               ; preds = %.preheader
  store i8 34, ptr %.0, align 1, !tbaa !34
  %storemerge1922.i = getelementptr inbounds nuw i8, ptr %.022, i64 1
  %storemerge24.i = getelementptr inbounds nuw i8, ptr %.0, i64 1
  %30 = load i8, ptr %storemerge1922.i, align 1, !tbaa !34
  %.not25.i = icmp eq i8 %30, 0
  br i1 %.not25.i, label %.preheader.backedge, label %.lr.ph.i

.lr.ph.i:                                         ; preds = %29, %42
  %.426 = phi ptr [ %storemerge19.i, %42 ], [ %storemerge1922.i, %29 ]
  %.2 = phi ptr [ %storemerge.i3, %42 ], [ %storemerge24.i, %29 ]
  %31 = phi i8 [ %43, %42 ], [ %30, %29 ]
  store i8 %31, ptr %.2, align 1, !tbaa !34
  %32 = load i8, ptr %.426, align 1, !tbaa !34
  switch i8 %32, label %42 [
    i8 34, label %33
    i8 92, label %36
  ]

33:                                               ; preds = %.lr.ph.i
  store i8 34, ptr %.2, align 1, !tbaa !34
  %34 = getelementptr inbounds nuw i8, ptr %.426, i64 1
  %35 = getelementptr inbounds nuw i8, ptr %.2, i64 1
  br label %.preheader.backedge

.preheader.backedge:                              ; preds = %42, %19, %11, %33, %29, %6, %25, %13, %44, %4
  %.022.be = phi ptr [ %45, %44 ], [ %5, %4 ], [ %14, %13 ], [ %26, %25 ], [ %7, %6 ], [ %storemerge1922.i, %29 ], [ %34, %33 ], [ %storemerge.i, %11 ], [ %storemerge.i2, %19 ], [ %storemerge19.i, %42 ]
  %.0.be = phi ptr [ %46, %44 ], [ %.0, %4 ], [ %.0, %13 ], [ %.0, %25 ], [ %.0, %6 ], [ %storemerge24.i, %29 ], [ %35, %33 ], [ %.0, %11 ], [ %.0, %19 ], [ %storemerge.i3, %42 ]
  br label %.preheader

36:                                               ; preds = %.lr.ph.i
  %37 = getelementptr inbounds nuw i8, ptr %.426, i64 1
  %38 = load i8, ptr %37, align 1, !tbaa !34
  %39 = icmp eq i8 %38, 34
  br i1 %39, label %40, label %42

40:                                               ; preds = %36
  %41 = getelementptr inbounds nuw i8, ptr %.2, i64 1
  store i8 34, ptr %41, align 1, !tbaa !34
  br label %42

42:                                               ; preds = %40, %36, %.lr.ph.i
  %.3 = phi ptr [ %.2, %.lr.ph.i ], [ %41, %40 ], [ %.2, %36 ]
  %.pn20.i = phi ptr [ %.426, %.lr.ph.i ], [ %37, %40 ], [ %.426, %36 ]
  %storemerge19.i = getelementptr inbounds nuw i8, ptr %.pn20.i, i64 1
  %storemerge.i3 = getelementptr inbounds nuw i8, ptr %.3, i64 1
  %43 = load i8, ptr %storemerge19.i, align 1, !tbaa !34
  %.not.i = icmp eq i8 %43, 0
  br i1 %.not.i, label %.preheader.backedge, label %.lr.ph.i

44:                                               ; preds = %.preheader
  store i8 %3, ptr %.0, align 1, !tbaa !34
  %45 = getelementptr inbounds nuw i8, ptr %.022, i64 1
  %46 = getelementptr inbounds nuw i8, ptr %.0, i64 1
  br label %.preheader.backedge

47:                                               ; preds = %.preheader
  store i8 0, ptr %.0, align 1, !tbaa !34
  br label %48

48:                                               ; preds = %1, %47
  ret void
}